target datalayout = "e-m:e-p270:32:32-p271:32:32-p272:64:64-i64:64-i128:128-f80:128-n8:16:32:64-S128"
target triple = "x86_64-pc-linux-gnu"

%struct.PJconsts = type { ptr, ptr, ptr, ptr, ptr, ptr, ptr, ptr, ptr, ptr, ptr, ptr, i32, ptr, ptr, ptr, ptr, ptr, ptr, ptr, ptr, double, double, double, double, double, double, double, double, double, double, double, double, double, double, double, double, double, double, double, double, double, double, i32, i32, i32, i32, i32, i32, i32, i32, i32, i32, i32, ptr, ptr, ptr, ptr, ptr, ptr, double, double, double, double, double, double, double, double, double, double, double, i32, [7 x double], i32, ptr, ptr, double, double, i32, [4 x i8], %"class.std::shared_ptr", i8, double, i8, %"class.std::__cxx11::basic_string", %"class.std::__cxx11::basic_string", %"class.std::__cxx11::basic_string", i8, %"class.std::vector", i32, %"class.std::vector.3", i32, i8, i8, i8, ptr }
%"class.std::shared_ptr" = type { %"class.std::__shared_ptr" }
%"class.std::__shared_ptr" = type { ptr, %"class.std::__shared_count" }
%"class.std::__shared_count" = type { ptr }
%"class.std::__cxx11::basic_string" = type { %"struct.std::__cxx11::basic_string<char>::_Alloc_hider", i64, %union.anon }
%"struct.std::__cxx11::basic_string<char>::_Alloc_hider" = type { ptr }
%union.anon = type { i64, [8 x i8] }
%"class.std::vector" = type { %"struct.std::_Vector_base" }
%"struct.std::_Vector_base" = type { %"struct.std::_Vector_base<osgeo::proj::operation::GridDescription, std::allocator<osgeo::proj::operation::GridDescription>>::_Vector_impl" }
%"struct.std::_Vector_base<osgeo::proj::operation::GridDescription, std::allocator<osgeo::proj::operation::GridDescription>>::_Vector_impl" = type { %"struct.std::_Vector_base<osgeo::proj::operation::GridDescription, std::allocator<osgeo::proj::operation::GridDescription>>::_Vector_impl_data" }
%"struct.std::_Vector_base<osgeo::proj::operation::GridDescription, std::allocator<osgeo::proj::operation::GridDescription>>::_Vector_impl_data" = type { ptr, ptr, ptr }
%"class.std::vector.3" = type { %"struct.std::_Vector_base.4" }
%"struct.std::_Vector_base.4" = type { %"struct.std::_Vector_base<PJCoordOperation, std::allocator<PJCoordOperation>>::_Vector_impl" }
%"struct.std::_Vector_base<PJCoordOperation, std::allocator<PJCoordOperation>>::_Vector_impl" = type { %"struct.std::_Vector_base<PJCoordOperation, std::allocator<PJCoordOperation>>::_Vector_impl_data" }
%"struct.std::_Vector_base<PJCoordOperation, std::allocator<PJCoordOperation>>::_Vector_impl_data" = type { ptr, ptr, ptr }
%union.PROJVALUE = type { double }
%"struct.(anonymous namespace)::pj_lagrng" = type { double, double, double, double, double, double }

@.str.1 = private unnamed_addr constant [3 x i8] c"tW\00", align 1
@.str.2 = private unnamed_addr constant [3 x i8] c"dW\00", align 1
@.str.3 = private unnamed_addr constant [38 x i8] c"Invalid value for W: it should be > 0\00", align 1
@.str.4 = private unnamed_addr constant [7 x i8] c"rlat_1\00", align 1
@.str.5 = private unnamed_addr constant [50 x i8] c"Invalid value for lat_1: |lat_1| should be < 90\C2\B0\00", align 1

; Function Attrs: mustprogress uwtable
define hidden noundef ptr @_Z35pj_projection_specific_setup_lagrngP8PJconsts(ptr noundef %0) #0 {
  %2 = alloca ptr, align 8
  %3 = alloca ptr, align 8
  %4 = alloca double, align 8
  %5 = alloca ptr, align 8
  %6 = alloca i32, align 4
  %7 = alloca %union.PROJVALUE, align 8
  %8 = alloca %union.PROJVALUE, align 8
  %9 = alloca %union.PROJVALUE, align 8
  store ptr %0, ptr %3, align 8, !tbaa !3
  call void @llvm.lifetime.start.p0(i64 8, ptr %4) #7
  call void @llvm.lifetime.start.p0(i64 8, ptr %5) #7
  %10 = call noalias ptr @calloc(i64 noundef 1, i64 noundef 48) #8
  store ptr %10, ptr %5, align 8, !tbaa !41
  %11 = load ptr, ptr %5, align 8, !tbaa !41
  %12 = icmp eq ptr null, %11
  br i1 %12, label %13, label %16

13:                                               ; preds = %1
  %14 = load ptr, ptr %3, align 8, !tbaa !3
  %15 = call noundef ptr @_Z21pj_default_destructorP8PJconstsi(ptr noundef %14, i32 noundef 4096)
  store ptr %15, ptr %2, align 8
  store i32 1, ptr %6, align 4
  br label %120

16:                                               ; preds = %1
  %17 = load ptr, ptr %5, align 8, !tbaa !41
  %18 = load ptr, ptr %3, align 8, !tbaa !3
  %19 = getelementptr inbounds nuw %struct.PJconsts, ptr %18, i32 0, i32 11
  store ptr %17, ptr %19, align 8, !tbaa !43
  call void @llvm.lifetime.start.p0(i64 8, ptr %7) #7
  %20 = load ptr, ptr %3, align 8, !tbaa !3
  %21 = getelementptr inbounds nuw %struct.PJconsts, ptr %20, i32 0, i32 0
  %22 = load ptr, ptr %21, align 8, !tbaa !44
  %23 = load ptr, ptr %3, align 8, !tbaa !3
  %24 = getelementptr inbounds nuw %struct.PJconsts, ptr %23, i32 0, i32 3
  %25 = load ptr, ptr %24, align 8, !tbaa !45
  %26 = call i64 @_Z8pj_paramP6pj_ctxP8ARG_listPKc(ptr noundef %22, ptr noundef %25, ptr noundef @.str.1)
  %27 = getelementptr inbounds nuw %union.PROJVALUE, ptr %7, i32 0, i32 0
  store i64 %26, ptr %27, align 8
  %28 = load i32, ptr %7, align 8, !tbaa !46
  %29 = icmp ne i32 %28, 0
  call void @llvm.lifetime.end.p0(i64 8, ptr %7) #7
  br i1 %29, label %30, label %42

30:                                               ; preds = %16
  call void @llvm.lifetime.start.p0(i64 8, ptr %8) #7
  %31 = load ptr, ptr %3, align 8, !tbaa !3
  %32 = getelementptr inbounds nuw %struct.PJconsts, ptr %31, i32 0, i32 0
  %33 = load ptr, ptr %32, align 8, !tbaa !44
  %34 = load ptr, ptr %3, align 8, !tbaa !3
  %35 = getelementptr inbounds nuw %struct.PJconsts, ptr %34, i32 0, i32 3
  %36 = load ptr, ptr %35, align 8, !tbaa !45
  %37 = call i64 @_Z8pj_paramP6pj_ctxP8ARG_listPKc(ptr noundef %33, ptr noundef %36, ptr noundef @.str.2)
  %38 = getelementptr inbounds nuw %union.PROJVALUE, ptr %8, i32 0, i32 0
  store i64 %37, ptr %38, align 8
  %39 = load double, ptr %8, align 8, !tbaa !46
  %40 = load ptr, ptr %5, align 8, !tbaa !41
  %41 = getelementptr inbounds nuw %"struct.(anonymous namespace)::pj_lagrng", ptr %40, i32 0, i32 5
  store double %39, ptr %41, align 8, !tbaa !47
  call void @llvm.lifetime.end.p0(i64 8, ptr %8) #7
  br label %45

42:                                               ; preds = %16
  %43 = load ptr, ptr %5, align 8, !tbaa !41
  %44 = getelementptr inbounds nuw %"struct.(anonymous namespace)::pj_lagrng", ptr %43, i32 0, i32 5
  store double 2.000000e+00, ptr %44, align 8, !tbaa !47
  br label %45

45:                                               ; preds = %42, %30
  %46 = load ptr, ptr %5, align 8, !tbaa !41
  %47 = getelementptr inbounds nuw %"struct.(anonymous namespace)::pj_lagrng", ptr %46, i32 0, i32 5
  %48 = load double, ptr %47, align 8, !tbaa !47
  %49 = fcmp ole double %48, 0.000000e+00
  br i1 %49, label %50, label %54

50:                                               ; preds = %45
  %51 = load ptr, ptr %3, align 8, !tbaa !3
  call void (ptr, ptr, ...) @_Z14proj_log_errorPK8PJconstsPKcz(ptr noundef %51, ptr noundef @.str.3)
  %52 = load ptr, ptr %3, align 8, !tbaa !3
  %53 = call noundef ptr @_Z21pj_default_destructorP8PJconstsi(ptr noundef %52, i32 noundef 1027)
  store ptr %53, ptr %2, align 8
  store i32 1, ptr %6, align 4
  br label %120

54:                                               ; preds = %45
  %55 = load ptr, ptr %5, align 8, !tbaa !41
  %56 = getelementptr inbounds nuw %"struct.(anonymous namespace)::pj_lagrng", ptr %55, i32 0, i32 5
  %57 = load double, ptr %56, align 8, !tbaa !47
  %58 = fmul double 5.000000e-01, %57
  %59 = load ptr, ptr %5, align 8, !tbaa !41
  %60 = getelementptr inbounds nuw %"struct.(anonymous namespace)::pj_lagrng", ptr %59, i32 0, i32 3
  store double %58, ptr %60, align 8, !tbaa !49
  %61 = load ptr, ptr %5, align 8, !tbaa !41
  %62 = getelementptr inbounds nuw %"struct.(anonymous namespace)::pj_lagrng", ptr %61, i32 0, i32 5
  %63 = load double, ptr %62, align 8, !tbaa !47
  %64 = fdiv double 1.000000e+00, %63
  %65 = load ptr, ptr %5, align 8, !tbaa !41
  %66 = getelementptr inbounds nuw %"struct.(anonymous namespace)::pj_lagrng", ptr %65, i32 0, i32 4
  store double %64, ptr %66, align 8, !tbaa !50
  %67 = load ptr, ptr %5, align 8, !tbaa !41
  %68 = getelementptr inbounds nuw %"struct.(anonymous namespace)::pj_lagrng", ptr %67, i32 0, i32 4
  %69 = load double, ptr %68, align 8, !tbaa !50
  %70 = fmul double 5.000000e-01, %69
  %71 = load ptr, ptr %5, align 8, !tbaa !41
  %72 = getelementptr inbounds nuw %"struct.(anonymous namespace)::pj_lagrng", ptr %71, i32 0, i32 2
  store double %70, ptr %72, align 8, !tbaa !51
  call void @llvm.lifetime.start.p0(i64 8, ptr %9) #7
  %73 = load ptr, ptr %3, align 8, !tbaa !3
  %74 = getelementptr inbounds nuw %struct.PJconsts, ptr %73, i32 0, i32 0
  %75 = load ptr, ptr %74, align 8, !tbaa !44
  %76 = load ptr, ptr %3, align 8, !tbaa !3
  %77 = getelementptr inbounds nuw %struct.PJconsts, ptr %76, i32 0, i32 3
  %78 = load ptr, ptr %77, align 8, !tbaa !45
  %79 = call i64 @_Z8pj_paramP6pj_ctxP8ARG_listPKc(ptr noundef %75, ptr noundef %78, ptr noundef @.str.4)
  %80 = getelementptr inbounds nuw %union.PROJVALUE, ptr %9, i32 0, i32 0
  store i64 %79, ptr %80, align 8
  %81 = load double, ptr %9, align 8, !tbaa !46
  %82 = call double @sin(double noundef %81) #7, !tbaa !52
  store double %82, ptr %4, align 8, !tbaa !53
  call void @llvm.lifetime.end.p0(i64 8, ptr %9) #7
  %83 = load double, ptr %4, align 8, !tbaa !53
  %84 = call double @llvm.fabs.f64(double %83)
  %85 = fsub double %84, 1.000000e+00
  %86 = call double @llvm.fabs.f64(double %85)
  %87 = fcmp olt double %86, 1.000000e-10
  br i1 %87, label %88, label %92

88:                                               ; preds = %54
  %89 = load ptr, ptr %3, align 8, !tbaa !3
  call void (ptr, ptr, ...) @_Z14proj_log_errorPK8PJconstsPKcz(ptr noundef %89, ptr noundef @.str.5)
  %90 = load ptr, ptr %3, align 8, !tbaa !3
  %91 = call noundef ptr @_Z21pj_default_destructorP8PJconstsi(ptr noundef %90, i32 noundef 1027)
  store ptr %91, ptr %2, align 8
  store i32 1, ptr %6, align 4
  br label %120

92:                                               ; preds = %54
  %93 = load double, ptr %4, align 8, !tbaa !53
  %94 = fsub double 1.000000e+00, %93
  %95 = load double, ptr %4, align 8, !tbaa !53
  %96 = fadd double 1.000000e+00, %95
  %97 = fdiv double %94, %96
  %98 = load ptr, ptr %5, align 8, !tbaa !41
  %99 = getelementptr inbounds nuw %"struct.(anonymous namespace)::pj_lagrng", ptr %98, i32 0, i32 2
  %100 = load double, ptr %99, align 8, !tbaa !51
  %101 = call double @pow(double noundef %97, double noundef %100) #7, !tbaa !52
  %102 = load ptr, ptr %5, align 8, !tbaa !41
  %103 = getelementptr inbounds nuw %"struct.(anonymous namespace)::pj_lagrng", ptr %102, i32 0, i32 0
  store double %101, ptr %103, align 8, !tbaa !54
  %104 = load ptr, ptr %5, align 8, !tbaa !41
  %105 = getelementptr inbounds nuw %"struct.(anonymous namespace)::pj_lagrng", ptr %104, i32 0, i32 0
  %106 = load double, ptr %105, align 8, !tbaa !54
  %107 = load ptr, ptr %5, align 8, !tbaa !41
  %108 = getelementptr inbounds nuw %"struct.(anonymous namespace)::pj_lagrng", ptr %107, i32 0, i32 0
  %109 = load double, ptr %108, align 8, !tbaa !54
  %110 = fmul double %106, %109
  %111 = load ptr, ptr %5, align 8, !tbaa !41
  %112 = getelementptr inbounds nuw %"struct.(anonymous namespace)::pj_lagrng", ptr %111, i32 0, i32 1
  store double %110, ptr %112, align 8, !tbaa !55
  %113 = load ptr, ptr %3, align 8, !tbaa !3
  %114 = getelementptr inbounds nuw %struct.PJconsts, ptr %113, i32 0, i32 27
  store double 0.000000e+00, ptr %114, align 8, !tbaa !56
  %115 = load ptr, ptr %3, align 8, !tbaa !3
  %116 = getelementptr inbounds nuw %struct.PJconsts, ptr %115, i32 0, i32 14
  store ptr @_ZL16lagrng_s_inverse5PJ_XYP8PJconsts, ptr %116, align 8, !tbaa !57
  %117 = load ptr, ptr %3, align 8, !tbaa !3
  %118 = getelementptr inbounds nuw %struct.PJconsts, ptr %117, i32 0, i32 13
  store ptr @_ZL16lagrng_s_forward5PJ_LPP8PJconsts, ptr %118, align 8, !tbaa !58
  %119 = load ptr, ptr %3, align 8, !tbaa !3
  store ptr %119, ptr %2, align 8
  store i32 1, ptr %6, align 4
  br label %120

120:                                              ; preds = %92, %88, %50, %13
  call void @llvm.lifetime.end.p0(i64 8, ptr %5) #7
  call void @llvm.lifetime.end.p0(i64 8, ptr %4) #7
  %121 = load ptr, ptr %2, align 8
  ret ptr %121
}