; Function Attrs: mustprogress uwtable
define hidden noundef ptr @_Z35pj_projection_specific_setup_lagrngP8PJconsts(ptr noundef %0) local_unnamed_addr #0 {
  %2 = tail call noalias dereferenceable_or_null(48) ptr @calloc(i64 noundef 1, i64 noundef 48) #5
  %3 = icmp eq ptr %2, null
  br i1 %3, label %4, label %6

4:                                                ; preds = %1
  %5 = tail call noundef ptr @_Z21pj_default_destructorP8PJconstsi(ptr noundef %0, i32 noundef 4096)
  br label %53

6:                                                ; preds = %1
  %7 = getelementptr inbounds nuw i8, ptr %0, i64 88
  store ptr %2, ptr %7, align 8, !tbaa !40
  %8 = load ptr, ptr %0, align 8, !tbaa !41
  %9 = getelementptr inbounds nuw i8, ptr %0, i64 24
  %10 = load ptr, ptr %9, align 8, !tbaa !42
  %11 = tail call i64 @_Z8pj_paramP6pj_ctxP8ARG_listPKc(ptr noundef %8, ptr noundef %10, ptr noundef nonnull @.str.1)
  %12 = and i64 %11, 4294967295
  %.not = icmp eq i64 %12, 0
  br i1 %.not, label %.thread, label %14

.thread:                                          ; preds = %6
  %13 = getelementptr inbounds nuw i8, ptr %2, i64 40
  store i64 4611686018427387904, ptr %13, align 8, !tbaa !43
  br label %23

14:                                               ; preds = %6
  %15 = load ptr, ptr %0, align 8, !tbaa !41
  %16 = load ptr, ptr %9, align 8, !tbaa !42
  %17 = tail call i64 @_Z8pj_paramP6pj_ctxP8ARG_listPKc(ptr noundef %15, ptr noundef %16, ptr noundef nonnull @.str.2)
  %18 = getelementptr inbounds nuw i8, ptr %2, i64 40
  store i64 %17, ptr %18, align 8, !tbaa !43
  %19 = bitcast i64 %17 to double
  %20 = fcmp ugt double %19, 0.000000e+00
  br i1 %20, label %23, label %21

21:                                               ; preds = %14
  tail call void (ptr, ptr, ...) @_Z14proj_log_errorPK8PJconstsPKcz(ptr noundef nonnull %0, ptr noundef nonnull @.str.3)
  %22 = tail call noundef ptr @_Z21pj_default_destructorP8PJconstsi(ptr noundef nonnull %0, i32 noundef 1027)
  br label %53

23:                                               ; preds = %.thread, %14
  %24 = phi double [ 2.000000e+00, %.thread ], [ %19, %14 ]
  %25 = fmul double %24, 5.000000e-01
  %26 = getelementptr inbounds nuw i8, ptr %2, i64 24
  store double %25, ptr %26, align 8, !tbaa !45
  %27 = fdiv double 1.000000e+00, %24
  %28 = getelementptr inbounds nuw i8, ptr %2, i64 32
  store double %27, ptr %28, align 8, !tbaa !46
  %29 = fmul double %27, 5.000000e-01
  %30 = getelementptr inbounds nuw i8, ptr %2, i64 16
  store double %29, ptr %30, align 8, !tbaa !47
  %31 = load ptr, ptr %0, align 8, !tbaa !41
  %32 = load ptr, ptr %9, align 8, !tbaa !42
  %33 = tail call i64 @_Z8pj_paramP6pj_ctxP8ARG_listPKc(ptr noundef %31, ptr noundef %32, ptr noundef nonnull @.str.4)
  %34 = bitcast i64 %33 to double
  %35 = tail call double @sin(double noundef %34) #6, !tbaa !48
  %36 = tail call double @llvm.fabs.f64(double %35)
  %37 = fadd double %36, -1.000000e+00
  %38 = tail call double @llvm.fabs.f64(double %37)
  %39 = fcmp olt double %38, 1.000000e-10
  br i1 %39, label %40, label %42

40:                                               ; preds = %23
  tail call void (ptr, ptr, ...) @_Z14proj_log_errorPK8PJconstsPKcz(ptr noundef nonnull %0, ptr noundef nonnull @.str.5)
  %41 = tail call noundef ptr @_Z21pj_default_destructorP8PJconstsi(ptr noundef nonnull %0, i32 noundef 1027)
  br label %53

42:                                               ; preds = %23
  %43 = fsub double 1.000000e+00, %35
  %44 = fadd double %35, 1.000000e+00
  %45 = fdiv double %43, %44
  %46 = load double, ptr %30, align 8, !tbaa !47
  %47 = tail call double @pow(double noundef %45, double noundef %46) #6, !tbaa !48
  store double %47, ptr %2, align 8, !tbaa !49
  %48 = fmul double %47, %47
  %49 = getelementptr inbounds nuw i8, ptr %2, i64 8
  store double %48, ptr %49, align 8, !tbaa !50
  %50 = getelementptr inbounds nuw i8, ptr %0, i64 216
  store double 0.000000e+00, ptr %50, align 8, !tbaa !51
  %51 = getelementptr inbounds nuw i8, ptr %0, i64 112
  store ptr @_ZL16lagrng_s_inverse5PJ_XYP8PJconsts, ptr %51, align 8, !tbaa !52
  %52 = getelementptr inbounds nuw i8, ptr %0, i64 104
  store ptr @_ZL16lagrng_s_forward5PJ_LPP8PJconsts, ptr %52, align 8, !tbaa !53
  br label %53

53:                                               ; preds = %42, %40, %21, %4
  %.0 = phi ptr [ %5, %4 ], [ %22, %21 ], [ %41, %40 ], [ %0, %42 ]
  ret ptr %.0
}